target datalayout = "e-m:e-p270:32:32-p271:32:32-p272:64:64-i64:64-i128:128-f80:128-n8:16:32:64-S128"
target triple = "x86_64-pc-linux-gnu"

%struct.lua_TValue = type { %union.Value, [1 x i32], i32 }
%union.Value = type { ptr }
%struct.lua_State = type { i8, i8, i8, i8, i8, i8, i8, ptr, ptr, ptr, ptr, ptr, ptr, ptr, ptr, i32, i32, i16, i16, i32, ptr, ptr, ptr, ptr, ptr }
%struct.GCheader = type { i8, i8, i8 }
%struct.global_State = type { %struct.stringtable, ptr, ptr, i8, i8, ptr, ptr, ptr, i64, i64, i32, i32, i32, [40 x ptr], [40 x ptr], ptr, ptr, ptr, [256 x i64], ptr, %struct.UpVal, [11 x ptr], [11 x ptr], [21 x ptr], %struct.lua_TValue, %struct.lua_TValue, i32, ptr, i64, [4 x i64], %struct.lua_Callbacks, %struct.lua_ExecutionCallbacks, [128 x ptr], [128 x ptr], [128 x ptr], %struct.GCStats }
%struct.stringtable = type { ptr, i32, i32 }
%struct.UpVal = type { i8, i8, i8, i8, ptr, %union.anon.3 }
%union.anon.3 = type { %struct.anon.4 }
%struct.anon.4 = type { ptr, ptr, ptr }
%struct.lua_Callbacks = type { ptr, ptr, ptr, ptr, ptr, ptr, ptr, ptr, ptr, ptr }
%struct.lua_ExecutionCallbacks = type { ptr, ptr, ptr, ptr, ptr, ptr, ptr }
%struct.GCStats = type { [32 x i32], i32, i32, i64, i64, i64, double, double, double }

@.str.3 = private unnamed_addr constant [1 x i8] zeroinitializer, align 1

; Function Attrs: mustprogress uwtable
define dso_local void @_Z10lua_concatP9lua_Statei(ptr noundef %0, i32 noundef %1) #0 {
  %3 = alloca ptr, align 8
  %4 = alloca i32, align 4
  %5 = alloca ptr, align 8
  store ptr %0, ptr %3, align 8, !tbaa !4
  store i32 %1, ptr %4, align 4, !tbaa !9
  %6 = load i32, ptr %4, align 4, !tbaa !9
  %7 = icmp sge i32 %6, 2
  br i1 %7, label %8, label %61

8:                                                ; preds = %2
  %9 = load ptr, ptr %3, align 8, !tbaa !4
  %10 = getelementptr inbounds nuw %struct.lua_State, ptr %9, i32 0, i32 9
  %11 = load ptr, ptr %10, align 8, !tbaa !33
  %12 = getelementptr inbounds nuw %struct.global_State, ptr %11, i32 0, i32 9
  %13 = load i64, ptr %12, align 8, !tbaa !34
  %14 = load ptr, ptr %3, align 8, !tbaa !4
  %15 = getelementptr inbounds nuw %struct.lua_State, ptr %14, i32 0, i32 9
  %16 = load ptr, ptr %15, align 8, !tbaa !33
  %17 = getelementptr inbounds nuw %struct.global_State, ptr %16, i32 0, i32 8
  %18 = load i64, ptr %17, align 8, !tbaa !48
  %19 = icmp uge i64 %13, %18
  br i1 %19, label %20, label %23

20:                                               ; preds = %8
  %21 = load ptr, ptr %3, align 8, !tbaa !4
  %22 = call noundef i64 @_Z9luaC_stepP9lua_Stateb(ptr noundef %21, i1 noundef zeroext true)
  br label %24

23:                                               ; preds = %8
  br label %24

24:                                               ; preds = %23, %20
  %25 = load ptr, ptr %3, align 8, !tbaa !4
  %26 = getelementptr inbounds %struct.lua_State, ptr %25, i64 0
  %27 = getelementptr inbounds nuw %struct.GCheader, ptr %26, i32 0, i32 1
  %28 = load i8, ptr %27, align 1, !tbaa !25
  %29 = zext i8 %28 to i32
  %30 = and i32 %29, 4
  %31 = icmp ne i32 %30, 0
  br i1 %31, label %32, label %38

32:                                               ; preds = %24
  %33 = load ptr, ptr %3, align 8, !tbaa !4
  %34 = load ptr, ptr %3, align 8, !tbaa !4
  %35 = getelementptr inbounds %struct.lua_State, ptr %34, i64 0
  %36 = load ptr, ptr %3, align 8, !tbaa !4
  %37 = getelementptr inbounds nuw %struct.lua_State, ptr %36, i32 0, i32 22
  call void @_Z16luaC_barrierbackP9lua_StateP8GCObjectPS2_(ptr noundef %33, ptr noundef %35, ptr noundef %37)
  br label %38

38:                                               ; preds = %32, %24
  %39 = load ptr, ptr %3, align 8, !tbaa !4
  %40 = load i32, ptr %4, align 4, !tbaa !9
  %41 = load ptr, ptr %3, align 8, !tbaa !4
  %42 = getelementptr inbounds nuw %struct.lua_State, ptr %41, i32 0, i32 7
  %43 = load ptr, ptr %42, align 8, !tbaa !23
  %44 = load ptr, ptr %3, align 8, !tbaa !4
  %45 = getelementptr inbounds nuw %struct.lua_State, ptr %44, i32 0, i32 8
  %46 = load ptr, ptr %45, align 8, !tbaa !13
  %47 = ptrtoint ptr %43 to i64
  %48 = ptrtoint ptr %46 to i64
  %49 = sub i64 %47, %48
  %50 = sdiv exact i64 %49, 16
  %51 = trunc i64 %50 to i32
  %52 = sub nsw i32 %51, 1
  call void @_Z11luaV_concatP9lua_Stateii(ptr noundef %39, i32 noundef %40, i32 noundef %52)
  %53 = load i32, ptr %4, align 4, !tbaa !9
  %54 = sub nsw i32 %53, 1
  %55 = load ptr, ptr %3, align 8, !tbaa !4
  %56 = getelementptr inbounds nuw %struct.lua_State, ptr %55, i32 0, i32 7
  %57 = load ptr, ptr %56, align 8, !tbaa !23
  %58 = sext i32 %54 to i64
  %59 = sub i64 0, %58
  %60 = getelementptr inbounds %struct.lua_TValue, ptr %57, i64 %59
  store ptr %60, ptr %56, align 8, !tbaa !23
  br label %93

61:                                               ; preds = %2
  %62 = load i32, ptr %4, align 4, !tbaa !9
  %63 = icmp eq i32 %62, 0
  br i1 %63, label %64, label %92

64:                                               ; preds = %61
  %65 = load ptr, ptr %3, align 8, !tbaa !4
  %66 = getelementptr inbounds %struct.lua_State, ptr %65, i64 0
  %67 = getelementptr inbounds nuw %struct.GCheader, ptr %66, i32 0, i32 1
  %68 = load i8, ptr %67, align 1, !tbaa !25
  %69 = zext i8 %68 to i32
  %70 = and i32 %69, 4
  %71 = icmp ne i32 %70, 0
  br i1 %71, label %72, label %78

72:                                               ; preds = %64
  %73 = load ptr, ptr %3, align 8, !tbaa !4
  %74 = load ptr, ptr %3, align 8, !tbaa !4
  %75 = getelementptr inbounds %struct.lua_State, ptr %74, i64 0
  %76 = load ptr, ptr %3, align 8, !tbaa !4
  %77 = getelementptr inbounds nuw %struct.lua_State, ptr %76, i32 0, i32 22
  call void @_Z16luaC_barrierbackP9lua_StateP8GCObjectPS2_(ptr noundef %73, ptr noundef %75, ptr noundef %77)
  br label %78

78:                                               ; preds = %72, %64
  call void @llvm.lifetime.start.p0(i64 8, ptr %5) #11
  %79 = load ptr, ptr %3, align 8, !tbaa !4
  %80 = getelementptr inbounds nuw %struct.lua_State, ptr %79, i32 0, i32 7
  %81 = load ptr, ptr %80, align 8, !tbaa !23
  store ptr %81, ptr %5, align 8, !tbaa !11
  %82 = load ptr, ptr %3, align 8, !tbaa !4
  %83 = call noundef ptr @_Z12luaS_newlstrP9lua_StatePKcm(ptr noundef %82, ptr noundef @.str.3, i64 noundef 0)
  %84 = load ptr, ptr %5, align 8, !tbaa !11
  %85 = getelementptr inbounds nuw %struct.lua_TValue, ptr %84, i32 0, i32 0
  store ptr %83, ptr %85, align 8, !tbaa !25
  %86 = load ptr, ptr %5, align 8, !tbaa !11
  %87 = getelementptr inbounds nuw %struct.lua_TValue, ptr %86, i32 0, i32 2
  store i32 5, ptr %87, align 4, !tbaa !49
  call void @llvm.lifetime.end.p0(i64 8, ptr %5) #11
  %88 = load ptr, ptr %3, align 8, !tbaa !4
  %89 = getelementptr inbounds nuw %struct.lua_State, ptr %88, i32 0, i32 7
  %90 = load ptr, ptr %89, align 8, !tbaa !23
  %91 = getelementptr inbounds nuw %struct.lua_TValue, ptr %90, i32 1
  store ptr %91, ptr %89, align 8, !tbaa !23
  br label %92

92:                                               ; preds = %78, %61
  br label %93

93:                                               ; preds = %92, %38
  ret void
}