; Function Attrs: mustprogress uwtable
define dso_local void @_Z10lua_concatP9lua_Statei(ptr noundef %0, i32 noundef %1) local_unnamed_addr #3 {
  %3 = icmp sgt i32 %1, 1
  br i1 %3, label %4, label %35

4:                                                ; preds = %2
  %5 = getelementptr inbounds nuw i8, ptr %0, i64 24
  %6 = load ptr, ptr %5, align 8, !tbaa !30
  %7 = getelementptr inbounds nuw i8, ptr %6, i64 72
  %8 = load i64, ptr %7, align 8, !tbaa !31
  %9 = getelementptr inbounds nuw i8, ptr %6, i64 64
  %10 = load i64, ptr %9, align 8, !tbaa !46
  %.not23 = icmp ult i64 %8, %10
  br i1 %.not23, label %13, label %11

11:                                               ; preds = %4
  %12 = tail call noundef i64 @_Z9luaC_stepP9lua_Stateb(ptr noundef nonnull %0, i1 noundef zeroext true)
  br label %13

13:                                               ; preds = %4, %11
  %14 = getelementptr inbounds nuw i8, ptr %0, i64 1
  %15 = load i8, ptr %14, align 1, !tbaa !21
  %16 = and i8 %15, 4
  %.not24 = icmp eq i8 %16, 0
  br i1 %.not24, label %19, label %17

17:                                               ; preds = %13
  %18 = getelementptr inbounds nuw i8, ptr %0, i64 104
  tail call void @_Z16luaC_barrierbackP9lua_StateP8GCObjectPS2_(ptr noundef nonnull %0, ptr noundef nonnull %0, ptr noundef nonnull %18)
  br label %19

19:                                               ; preds = %17, %13
  %20 = getelementptr inbounds nuw i8, ptr %0, i64 8
  %21 = load ptr, ptr %20, align 8, !tbaa !19
  %22 = getelementptr inbounds nuw i8, ptr %0, i64 16
  %23 = load ptr, ptr %22, align 8, !tbaa !4
  %24 = ptrtoint ptr %21 to i64
  %25 = ptrtoint ptr %23 to i64
  %26 = sub i64 %24, %25
  %27 = lshr exact i64 %26, 4
  %28 = trunc i64 %27 to i32
  %29 = add nsw i32 %28, -1
  tail call void @_Z11luaV_concatP9lua_Stateii(ptr noundef nonnull %0, i32 noundef %1, i32 noundef %29)
  %30 = add nsw i32 %1, -1
  %31 = load ptr, ptr %20, align 8, !tbaa !19
  %32 = zext nneg i32 %30 to i64
  %33 = sub nsw i64 0, %32
  %34 = getelementptr inbounds %struct.lua_TValue, ptr %31, i64 %33
  store ptr %34, ptr %20, align 8, !tbaa !19
  br label %50

35:                                               ; preds = %2
  %36 = icmp eq i32 %1, 0
  br i1 %36, label %37, label %50

37:                                               ; preds = %35
  %38 = getelementptr inbounds nuw i8, ptr %0, i64 1
  %39 = load i8, ptr %38, align 1, !tbaa !21
  %40 = and i8 %39, 4
  %.not = icmp eq i8 %40, 0
  br i1 %.not, label %43, label %41

41:                                               ; preds = %37
  %42 = getelementptr inbounds nuw i8, ptr %0, i64 104
  tail call void @_Z16luaC_barrierbackP9lua_StateP8GCObjectPS2_(ptr noundef nonnull %0, ptr noundef nonnull %0, ptr noundef nonnull %42)
  br label %43

43:                                               ; preds = %41, %37
  %44 = getelementptr inbounds nuw i8, ptr %0, i64 8
  %45 = load ptr, ptr %44, align 8, !tbaa !19
  %46 = tail call noundef ptr @_Z12luaS_newlstrP9lua_StatePKcm(ptr noundef nonnull %0, ptr noundef nonnull @.str.3, i64 noundef 0)
  store ptr %46, ptr %45, align 8, !tbaa !21
  %47 = getelementptr inbounds nuw i8, ptr %45, i64 12
  store i32 5, ptr %47, align 4, !tbaa !47
  %48 = load ptr, ptr %44, align 8, !tbaa !19
  %49 = getelementptr inbounds nuw i8, ptr %48, i64 16
  store ptr %49, ptr %44, align 8, !tbaa !19
  br label %50

50:                                               ; preds = %35, %43, %19
  ret void
}